; Function Attrs: nounwind uwtable
define void @aagrestart(ptr noundef %0) local_unnamed_addr #1 {
  %2 = load ptr, ptr @yy_buffer_stack, align 8
  %.not = icmp eq ptr %2, null
  br i1 %.not, label %7, label %3

3:                                                ; preds = %1
  %4 = load i64, ptr @yy_buffer_stack_top, align 8
  %5 = getelementptr inbounds ptr, ptr %2, i64 %4
  %6 = load ptr, ptr %5, align 8
  %.not2 = icmp eq ptr %6, null
  br i1 %.not2, label %11, label %26

7:                                                ; preds = %1
  %8 = tail call noalias noundef dereferenceable_or_null(8) ptr @malloc(i64 noundef 8) #25
  store ptr %8, ptr @yy_buffer_stack, align 8
  %.not9.i = icmp eq ptr %8, null
  br i1 %.not9.i, label %9, label %10

9:                                                ; preds = %7
  tail call fastcc void @yy_fatal_error(ptr noundef nonnull @.str.27) #26
  unreachable

10:                                               ; preds = %7
  store i64 0, ptr %8, align 8
  store i64 1, ptr @yy_buffer_stack_max, align 8
  store i64 0, ptr @yy_buffer_stack_top, align 8
  br label %.thread7

11:                                               ; preds = %3
  %12 = load i64, ptr @yy_buffer_stack_max, align 8
  %13 = add i64 %12, -1
  %.not10.i = icmp ult i64 %4, %13
  br i1 %.not10.i, label %.thread7, label %14

14:                                               ; preds = %11
  %15 = add i64 %12, 8
  %16 = shl i64 %15, 3
  %17 = tail call noalias noundef ptr @realloc(ptr noundef nonnull %2, i64 noundef %16) #27
  store ptr %17, ptr @yy_buffer_stack, align 8
  %.not11.i = icmp eq ptr %17, null
  br i1 %.not11.i, label %18, label %19

18:                                               ; preds = %14
  tail call fastcc void @yy_fatal_error(ptr noundef nonnull @.str.27) #26
  unreachable

19:                                               ; preds = %14
  %20 = getelementptr inbounds ptr, ptr %17, i64 %12
  tail call void @llvm.memset.p0.i64(ptr noundef nonnull align 8 dereferenceable(64) %20, i8 0, i64 64, i1 false)
  store i64 %15, ptr @yy_buffer_stack_max, align 8
  br label %.thread7

.thread7:                                         ; preds = %19, %11, %10
  %21 = load ptr, ptr @aagin, align 8
  %22 = tail call ptr @aag_create_buffer(ptr noundef %21, i32 noundef 16384)
  %23 = load ptr, ptr @yy_buffer_stack, align 8
  %24 = load i64, ptr @yy_buffer_stack_top, align 8
  %25 = getelementptr inbounds ptr, ptr %23, i64 %24
  store ptr %22, ptr %25, align 8
  %.not38 = icmp eq ptr %23, null
  br label %26

26:                                               ; preds = %3, %.thread7
  %27 = phi ptr [ %22, %.thread7 ], [ %6, %3 ]
  %28 = phi i64 [ %24, %.thread7 ], [ %4, %3 ]
  %.not39 = phi i1 [ %.not38, %.thread7 ], [ false, %3 ]
  %29 = phi ptr [ %23, %.thread7 ], [ %2, %3 ]
  %30 = getelementptr inbounds ptr, ptr %29, i64 %28
  %31 = tail call ptr @__errno_location() #31
  %32 = load i32, ptr %31, align 4
  %33 = getelementptr inbounds nuw i8, ptr %27, i64 28
  store i32 0, ptr %33, align 4
  %34 = getelementptr inbounds nuw i8, ptr %27, i64 8
  %35 = load ptr, ptr %34, align 8
  store i8 0, ptr %35, align 1
  %36 = load ptr, ptr %34, align 8
  %37 = getelementptr inbounds nuw i8, ptr %36, i64 1
  store i8 0, ptr %37, align 1
  %38 = load ptr, ptr %34, align 8
  %39 = getelementptr inbounds nuw i8, ptr %27, i64 16
  store ptr %38, ptr %39, align 8
  %40 = getelementptr inbounds nuw i8, ptr %27, i64 40
  store i32 1, ptr %40, align 8
  %41 = getelementptr inbounds nuw i8, ptr %27, i64 56
  store i32 0, ptr %41, align 8
  br i1 %.not39, label %aag_flush_buffer.exit.thread.i, label %43

aag_flush_buffer.exit.thread.i:                   ; preds = %26
  store ptr %0, ptr %27, align 8
  %42 = getelementptr inbounds nuw i8, ptr %27, i64 52
  store i32 1, ptr %42, align 4
  br label %.thread.i

43:                                               ; preds = %26
  %44 = load ptr, ptr %30, align 8
  %45 = icmp eq ptr %27, %44
  br i1 %45, label %46, label %aag_flush_buffer.exit.thread14.i

46:                                               ; preds = %43
  %47 = getelementptr inbounds nuw i8, ptr %44, i64 28
  %48 = load i32, ptr %47, align 4
  store i32 %48, ptr @yy_n_chars, align 4
  %49 = getelementptr inbounds nuw i8, ptr %44, i64 16
  %50 = load ptr, ptr %49, align 8
  store ptr %50, ptr @yy_c_buf_p, align 8
  store ptr %50, ptr @aagtext, align 8
  %51 = load ptr, ptr %30, align 8
  %52 = load ptr, ptr %51, align 8
  store ptr %52, ptr @aagin, align 8
  %53 = load i8, ptr %50, align 1
  store i8 %53, ptr @yy_hold_char, align 1
  br label %aag_flush_buffer.exit.thread14.i

aag_flush_buffer.exit.thread14.i:                 ; preds = %46, %43
  store ptr %0, ptr %27, align 8
  %54 = getelementptr inbounds nuw i8, ptr %27, i64 52
  store i32 1, ptr %54, align 4
  %55 = load ptr, ptr %30, align 8
  %.not10.i4 = icmp eq ptr %27, %55
  br i1 %.not10.i4, label %aag_init_buffer.exit, label %.thread.i

.thread.i:                                        ; preds = %aag_flush_buffer.exit.thread14.i, %aag_flush_buffer.exit.thread.i
  %56 = getelementptr inbounds nuw i8, ptr %27, i64 44
  store i32 1, ptr %56, align 4
  %57 = getelementptr inbounds nuw i8, ptr %27, i64 48
  store i32 0, ptr %57, align 8
  br label %aag_init_buffer.exit

aag_init_buffer.exit:                             ; preds = %aag_flush_buffer.exit.thread14.i, %.thread.i
  %.not11.i5 = icmp ne ptr %0, null
  %58 = load i32, ptr @gv_isatty_suppression, align 4
  %59 = icmp sgt i32 %58, 0
  %narrow.i = select i1 %.not11.i5, i1 %59, i1 false
  %60 = zext i1 %narrow.i to i32
  %61 = getelementptr inbounds nuw i8, ptr %27, i64 36
  store i32 %60, ptr %61, align 4
  store i32 %32, ptr %31, align 4
  %62 = load ptr, ptr %30, align 8
  %63 = getelementptr inbounds nuw i8, ptr %62, i64 28
  %64 = load i32, ptr %63, align 4
  store i32 %64, ptr @yy_n_chars, align 4
  %65 = getelementptr inbounds nuw i8, ptr %62, i64 16
  %66 = load ptr, ptr %65, align 8
  store ptr %66, ptr @yy_c_buf_p, align 8
  store ptr %66, ptr @aagtext, align 8
  %67 = load ptr, ptr %30, align 8
  %68 = load ptr, ptr %67, align 8
  store ptr %68, ptr @aagin, align 8
  %69 = load i8, ptr %66, align 1
  store i8 %69, ptr @yy_hold_char, align 1
  ret void
}